target datalayout = "e-m:e-p270:32:32-p271:32:32-p272:64:64-i64:64-f80:128-n8:16:32:64-S128"
target triple = "x86_64-pc-linux-gnu"

@.str = private unnamed_addr constant [4 x i8] c"%d\0A\00", align 1
@__const.main.num = private unnamed_addr constant [25 x i32] [i32 1, i32 1, i32 1, i32 1, i32 1, i32 1, i32 1, i32 1, i32 1, i32 1, i32 1, i32 1, i32 1, i32 1, i32 1, i32 1, i32 1, i32 1, i32 1, i32 1, i32 1, i32 1, i32 1, i32 1, i32 1], align 16
@.str.1 = private unnamed_addr constant [3 x i8] c"%d\00", align 1

; Function Attrs: noinline nounwind uwtable
define dso_local i32 @max(i32 %0, i32 %1) #0 {
  %3 = alloca i32, align 4
  %4 = alloca i32, align 4
  %5 = alloca i32, align 4
  store i32 %0, i32* %3, align 4
  store i32 %1, i32* %4, align 4
  %6 = load i32, i32* %3, align 4
  %7 = load i32, i32* %4, align 4
  %8 = icmp sge i32 %6, %7
  br i1 %8, label %9, label %11

9:                                                ; preds = %2
  %10 = load i32, i32* %3, align 4
  store i32 %10, i32* %5, align 4
  br label %13

11:                                               ; preds = %2
  %12 = load i32, i32* %4, align 4
  store i32 %12, i32* %5, align 4
  br label %13

13:                                               ; preds = %11, %9
  %14 = load i32, i32* %5, align 4
  ret i32 %14
}

; Function Attrs: noinline nounwind uwtable
define dso_local i32 @MAX_multi(i32* %0, i32 %1) #0 {
  %3 = alloca i32*, align 8
  %4 = alloca i32, align 4
  %5 = alloca i32, align 4
  %6 = alloca i32, align 4
  store i32* %0, i32** %3, align 8
  store i32 %1, i32* %4, align 4
  store i32 0, i32* %5, align 4
  store i32 0, i32* %6, align 4
  br label %7

7:                                                ; preds = %19, %2
  %8 = load i32, i32* %6, align 4
  %9 = load i32, i32* %4, align 4
  %10 = icmp slt i32 %8, %9
  br i1 %10, label %11, label %22

11:                                               ; preds = %7
  %12 = load i32, i32* %5, align 4
  %13 = load i32*, i32** %3, align 8
  %14 = load i32, i32* %6, align 4
  %15 = sext i32 %14 to i64
  %16 = getelementptr inbounds i32, i32* %13, i64 %15
  %17 = load i32, i32* %16, align 4
  %18 = call i32 @max(i32 %12, i32 %17)
  store i32 %18, i32* %5, align 4
  br label %19

19:                                               ; preds = %11
  %20 = load i32, i32* %6, align 4
  %21 = add nsw i32 %20, 1
  store i32 %21, i32* %6, align 4
  br label %7

22:                                               ; preds = %7
  %23 = load i32, i32* %5, align 4
  ret i32 %23
}

; Function Attrs: noinline nounwind uwtable
define dso_local void @count(i32* %0, i32* %1, i32 %2) #0 {
  %4 = alloca i32*, align 8
  %5 = alloca i32*, align 8
  %6 = alloca i32, align 4
  %7 = alloca i32, align 4
  %8 = alloca i32, align 4
  store i32* %0, i32** %4, align 8
  store i32* %1, i32** %5, align 8
  store i32 %2, i32* %6, align 4
  %9 = load i32, i32* %6, align 4
  %10 = sub nsw i32 %9, 1
  store i32 %10, i32* %7, align 4
  br label %11

11:                                               ; preds = %55, %3
  %12 = load i32, i32* %7, align 4
  %13 = icmp sge i32 %12, 0
  br i1 %13, label %14, label %58

14:                                               ; preds = %11
  %15 = load i32, i32* %6, align 4
  %16 = sub nsw i32 %15, 1
  store i32 %16, i32* %8, align 4
  br label %17

17:                                               ; preds = %51, %14
  %18 = load i32, i32* %8, align 4
  %19 = load i32, i32* %7, align 4
  %20 = icmp sgt i32 %18, %19
  br i1 %20, label %21, label %54

21:                                               ; preds = %17
  %22 = load i32*, i32** %4, align 8
  %23 = load i32, i32* %7, align 4
  %24 = sext i32 %23 to i64
  %25 = getelementptr inbounds i32, i32* %22, i64 %24
  %26 = load i32, i32* %25, align 4
  %27 = load i32*, i32** %4, align 8
  %28 = load i32, i32* %8, align 4
  %29 = sext i32 %28 to i64
  %30 = getelementptr inbounds i32, i32* %27, i64 %29
  %31 = load i32, i32* %30, align 4
  %32 = icmp sge i32 %26, %31
  br i1 %32, label %33, label %50

33:                                               ; preds = %21
  %34 = load i32*, i32** %5, align 8
  %35 = load i32, i32* %7, align 4
  %36 = sext i32 %35 to i64
  %37 = getelementptr inbounds i32, i32* %34, i64 %36
  %38 = load i32, i32* %37, align 4
  %39 = load i32*, i32** %5, align 8
  %40 = load i32, i32* %8, align 4
  %41 = sext i32 %40 to i64
  %42 = getelementptr inbounds i32, i32* %39, i64 %41
  %43 = load i32, i32* %42, align 4
  %44 = add nsw i32 %43, 1
  %45 = call i32 @max(i32 %38, i32 %44)
  %46 = load i32*, i32** %5, align 8
  %47 = load i32, i32* %7, align 4
  %48 = sext i32 %47 to i64
  %49 = getelementptr inbounds i32, i32* %46, i64 %48
  store i32 %45, i32* %49, align 4
  br label %50

50:                                               ; preds = %33, %21
  br label %51

51:                                               ; preds = %50
  %52 = load i32, i32* %8, align 4
  %53 = add nsw i32 %52, -1
  store i32 %53, i32* %8, align 4
  br label %17

54:                                               ; preds = %17
  br label %55

55:                                               ; preds = %54
  %56 = load i32, i32* %7, align 4
  %57 = add nsw i32 %56, -1
  store i32 %57, i32* %7, align 4
  br label %11

58:                                               ; preds = %11
  %59 = load i32*, i32** %5, align 8
  %60 = load i32, i32* %6, align 4
  %61 = call i32 @MAX_multi(i32* %59, i32 %60)
  %62 = call i32 (i8*, ...) @printf(i8* getelementptr inbounds ([4 x i8], [4 x i8]* @.str, i64 0, i64 0), i32 %61)
  ret void
}

; Function Attrs: noinline nounwind uwtable
define dso_local void @main() #0 {
  %1 = alloca i32, align 4
  %2 = alloca i32, align 4
  %3 = alloca [25 x i32], align 16
  %4 = alloca [25 x i32], align 16
  %5 = bitcast [25 x i32]* %4 to i8*
  call void @llvm.memcpy.p0i8.p0i8.i64(i8* align 16 %5, i8* align 16 bitcast ([25 x i32]* @__const.main.num to i8*), i64 100, i1 false)
  %6 = call i32 (i8*, ...) @__isoc99_scanf(i8* getelementptr inbounds ([3 x i8], [3 x i8]* @.str.1, i64 0, i64 0), i32* %1)
  store i32 0, i32* %2, align 4
  br label %7

7:                                                ; preds = %16, %0
  %8 = load i32, i32* %2, align 4
  %9 = load i32, i32* %1, align 4
  %10 = icmp slt i32 %8, %9
  br i1 %10, label %11, label %19

11:                                               ; preds = %7
  %12 = load i32, i32* %2, align 4
  %13 = sext i32 %12 to i64
  %14 = getelementptr inbounds [25 x i32], [25 x i32]* %3, i64 0, i64 %13
  %15 = call i32 (i8*, ...) @__isoc99_scanf(i8* getelementptr inbounds ([3 x i8], [3 x i8]* @.str.1, i64 0, i64 0), i32* %14)
  br label %16

16:                                               ; preds = %11
  %17 = load i32, i32* %2, align 4
  %18 = add nsw i32 %17, 1
  store i32 %18, i32* %2, align 4
  br label %7

19:                                               ; preds = %7
  %20 = getelementptr inbounds [25 x i32], [25 x i32]* %3, i64 0, i64 0
  %21 = getelementptr inbounds [25 x i32], [25 x i32]* %4, i64 0, i64 0
  %22 = load i32, i32* %1, align 4
  call void @count(i32* %20, i32* %21, i32 %22)
  ret void
}